; Function Attrs: mustprogress uwtable
define void @_ZN11OpenImageIO6v3_1_014set_colorspaceERNS0_9ImageSpecENS0_17basic_string_viewIcSt11char_traitsIcEEE(ptr noundef nonnull align 8 dereferenceable(160) %0, ptr noundef readonly captures(none) %1) local_unnamed_addr #5 personality ptr @__gxx_personality_v0 {
  %3 = alloca %"class.OpenImageIO::v3_1_0::basic_string_view", align 8
  %4 = alloca %"class.OpenImageIO::v3_1_0::basic_string_view", align 8
  call void @llvm.lifetime.start.p0(i64 16, ptr nonnull %3)
  %5 = load atomic i8, ptr @_ZGVZN11OpenImageIO6v3_1_011ColorConfig19default_colorconfigEvE6config acquire, align 8
  %6 = icmp eq i8 %5, 0
  br i1 %6, label %7, label %_ZN11OpenImageIO6v3_1_011ColorConfig19default_colorconfigEv.exit, !prof !3

7:                                                ; preds = %2
  %8 = tail call i32 @__cxa_guard_acquire(ptr nonnull @_ZGVZN11OpenImageIO6v3_1_011ColorConfig19default_colorconfigEvE6config) #34
  %.not.i = icmp eq i32 %8, 0
  br i1 %.not.i, label %_ZN11OpenImageIO6v3_1_011ColorConfig19default_colorconfigEv.exit, label %9

9:                                                ; preds = %7
  store ptr @.str.8, ptr %3, align 8, !tbaa !4
  %10 = getelementptr inbounds nuw i8, ptr %3, i64 8
  store i64 0, ptr %10, align 8, !tbaa !11
  invoke void @_ZN11OpenImageIO6v3_1_011ColorConfigC1ENS0_17basic_string_viewIcSt11char_traitsIcEEE(ptr noundef nonnull align 8 dereferenceable(8) @_ZZN11OpenImageIO6v3_1_011ColorConfig19default_colorconfigEvE6config, ptr noundef nonnull %3)
          to label %11 unwind label %13

11:                                               ; preds = %9
  %12 = call i32 @__cxa_atexit(ptr nonnull @_ZN11OpenImageIO6v3_1_011ColorConfigD1Ev, ptr nonnull @_ZZN11OpenImageIO6v3_1_011ColorConfig19default_colorconfigEvE6config, ptr nonnull @__dso_handle) #34
  call void @__cxa_guard_release(ptr nonnull @_ZGVZN11OpenImageIO6v3_1_011ColorConfig19default_colorconfigEvE6config) #34
  br label %_ZN11OpenImageIO6v3_1_011ColorConfig19default_colorconfigEv.exit

13:                                               ; preds = %9
  %14 = landingpad { ptr, i32 }
          cleanup
  call void @__cxa_guard_abort(ptr nonnull @_ZGVZN11OpenImageIO6v3_1_011ColorConfig19default_colorconfigEvE6config) #34
  resume { ptr, i32 } %14

_ZN11OpenImageIO6v3_1_011ColorConfig19default_colorconfigEv.exit: ; preds = %2, %7, %11
  call void @llvm.lifetime.end.p0(i64 16, ptr nonnull %3)
  %15 = load ptr, ptr %1, align 8, !tbaa !4
  store ptr %15, ptr %4, align 8, !tbaa !4
  %16 = getelementptr inbounds nuw i8, ptr %4, i64 8
  %17 = getelementptr inbounds nuw i8, ptr %1, i64 8
  %18 = load i64, ptr %17, align 8, !tbaa !11
  store i64 %18, ptr %16, align 8, !tbaa !11
  call void @_ZNK11OpenImageIO6v3_1_011ColorConfig14set_colorspaceERNS0_9ImageSpecENS0_17basic_string_viewIcSt11char_traitsIcEEE(ptr noundef nonnull align 8 dereferenceable(8) @_ZZN11OpenImageIO6v3_1_011ColorConfig19default_colorconfigEvE6config, ptr noundef nonnull align 8 dereferenceable(160) %0, ptr noundef nonnull %4)
  ret void
}